; Function Attrs: mustprogress uwtable
define void @_ZNK22MLRenderingFloatSlider30getRenderingDataAccordingToGUIER15MLRenderingData(ptr nocapture noundef nonnull readonly align 8 dereferenceable(60) %0, ptr noundef nonnull align 8 dereferenceable(40) %1) local_unnamed_addr #3 align 2 {
  %3 = getelementptr inbounds i8, ptr %0, i64 48
  %4 = load ptr, ptr %3, align 8
  %.not = icmp eq ptr %4, null
  br i1 %.not, label %9, label %5

5:                                                ; preds = %2
  %6 = load ptr, ptr %4, align 8
  %7 = getelementptr inbounds i8, ptr %6, i64 104
  %8 = load ptr, ptr %7, align 8
  tail call void %8(ptr noundef nonnull align 8 dereferenceable(20) %4, ptr noundef nonnull align 8 dereferenceable(40) %1)
  br label %9

9:                                                ; preds = %5, %2
  ret void
}